target datalayout = "e-m:e-p270:32:32-p271:32:32-p272:64:64-i64:64-i128:128-f80:128-n8:16:32:64-S128"
target triple = "x86_64-pc-linux-gnu"

%struct.wccp_address_table = type { i8, i16, i16, i16, ptr, ptr }
%struct.e_in6_addr = type { [16 x i8] }

@.str.421 = private unnamed_addr constant [32 x i8] c"INVALID: reserved part non zero\00", align 1
@.str.422 = private unnamed_addr constant [28 x i8] c"INVALID IPv4 index: %d > %d\00", align 1
@.str.424 = private unnamed_addr constant [28 x i8] c"INVALID IPv6 index: %d > %d\00", align 1
@.str.425 = private unnamed_addr constant [26 x i8] c"INVALID IPv6 table empty!\00", align 1
@.str.426 = private unnamed_addr constant [18 x i8] c"INVALID IP family\00", align 1
@.str.432 = private unnamed_addr constant [8 x i8] c"0.0.0.0\00", align 1
@.str.433 = private unnamed_addr constant [26 x i8] c"INVALID IPv4 table empty!\00", align 1
@.str.434 = private unnamed_addr constant [3 x i8] c"::\00", align 1

; Function Attrs: null_pointer_is_valid sspstrong uwtable
define internal ptr @decode_wccp_encoded_address(ptr noundef %0, i32 noundef %1, ptr noundef %2, ptr noundef %3, ptr noundef %4) #0 {
  %6 = alloca ptr, align 8
  %7 = alloca i32, align 4
  %8 = alloca ptr, align 8
  %9 = alloca ptr, align 8
  %10 = alloca ptr, align 8
  %11 = alloca i32, align 4
  %12 = alloca ptr, align 8
  %13 = alloca i16, align 2
  %14 = alloca i16, align 2
  store ptr %0, ptr %6, align 8
  store i32 %1, ptr %7, align 4
  store ptr %2, ptr %8, align 8
  store ptr %3, ptr %9, align 8
  store ptr %4, ptr %10, align 8
  call void @llvm.lifetime.start.p0(i64 4, ptr %11) #9
  call void @llvm.lifetime.start.p0(i64 8, ptr %12) #9
  %15 = load ptr, ptr %10, align 8
  %16 = getelementptr inbounds nuw %struct.wccp_address_table, ptr %15, i32 0, i32 0
  %17 = load i8, ptr %16, align 8, !range !12, !noundef !13
  %18 = trunc i8 %17 to i1
  br i1 %18, label %26, label %19

19:                                               ; preds = %5
  %20 = load ptr, ptr %6, align 8
  %21 = load i32, ptr %7, align 4
  %22 = call i32 @tvb_get_ipv4(ptr noundef %20, i32 noundef %21)
  store i32 %22, ptr %11, align 4
  %23 = call ptr @wmem_packet_scope()
  %24 = call noalias ptr @wmem_alloc(ptr noundef %23, i64 noundef 16) #11
  store ptr %24, ptr %12, align 8
  %25 = load ptr, ptr %12, align 8
  call void @ip_addr_to_str_buf(ptr noundef %11, ptr noundef %25, i32 noundef 16)
  br label %143

26:                                               ; preds = %5
  call void @llvm.lifetime.start.p0(i64 2, ptr %13) #9
  call void @llvm.lifetime.start.p0(i64 2, ptr %14) #9
  %27 = load ptr, ptr %6, align 8
  %28 = load i32, ptr %7, align 4
  %29 = call i32 @tvb_get_ntohl(ptr noundef %27, i32 noundef %28)
  store i32 %29, ptr %11, align 4
  %30 = load i32, ptr %11, align 4
  %31 = and i32 %30, -65536
  %32 = lshr i32 %31, 16
  %33 = trunc i32 %32 to i16
  store i16 %33, ptr %13, align 2
  %34 = load i32, ptr %11, align 4
  %35 = and i32 %34, 65535
  %36 = trunc i32 %35 to i16
  store i16 %36, ptr %14, align 2
  %37 = load i16, ptr %13, align 2
  %38 = zext i16 %37 to i32
  %39 = icmp ne i32 %38, 0
  br i1 %39, label %40, label %43

40:                                               ; preds = %26
  %41 = call ptr @wmem_packet_scope()
  %42 = call noalias ptr @wmem_strdup(ptr noundef %41, ptr noundef @.str.421)
  store ptr %42, ptr %12, align 8
  br label %142

43:                                               ; preds = %26
  %44 = load ptr, ptr %10, align 8
  %45 = getelementptr inbounds nuw %struct.wccp_address_table, ptr %44, i32 0, i32 1
  %46 = load i16, ptr %45, align 2
  %47 = sext i16 %46 to i32
  switch i32 %47, label %138 [
    i32 1, label %48
    i32 2, label %93
  ]

48:                                               ; preds = %43
  %49 = load i16, ptr %14, align 2
  %50 = zext i16 %49 to i32
  %51 = icmp eq i32 %50, 0
  br i1 %51, label %52, label %55

52:                                               ; preds = %48
  %53 = call ptr @wmem_packet_scope()
  %54 = call noalias ptr @wmem_strdup(ptr noundef %53, ptr noundef @.str.432)
  store ptr %54, ptr %12, align 8
  br label %141

55:                                               ; preds = %48
  %56 = load i16, ptr %14, align 2
  %57 = zext i16 %56 to i32
  %58 = load ptr, ptr %10, align 8
  %59 = getelementptr inbounds nuw %struct.wccp_address_table, ptr %58, i32 0, i32 3
  %60 = load i16, ptr %59, align 2
  %61 = zext i16 %60 to i32
  %62 = icmp sgt i32 %57, %61
  br i1 %62, label %63, label %72

63:                                               ; preds = %55
  %64 = call ptr @wmem_packet_scope()
  %65 = load i16, ptr %14, align 2
  %66 = zext i16 %65 to i32
  %67 = load ptr, ptr %10, align 8
  %68 = getelementptr inbounds nuw %struct.wccp_address_table, ptr %67, i32 0, i32 3
  %69 = load i16, ptr %68, align 2
  %70 = zext i16 %69 to i32
  %71 = call noalias ptr (ptr, ptr, ...) @wmem_strdup_printf(ptr noundef %64, ptr noundef @.str.422, i32 noundef %66, i32 noundef %70)
  store ptr %71, ptr %12, align 8
  br label %141

72:                                               ; preds = %55
  %73 = load ptr, ptr %10, align 8
  %74 = getelementptr inbounds nuw %struct.wccp_address_table, ptr %73, i32 0, i32 4
  %75 = load ptr, ptr %74, align 8
  %76 = icmp ne ptr %75, null
  br i1 %76, label %77, label %89

77:                                               ; preds = %72
  %78 = call ptr @wmem_packet_scope()
  %79 = call noalias ptr @wmem_alloc(ptr noundef %78, i64 noundef 16) #11
  store ptr %79, ptr %12, align 8
  %80 = load ptr, ptr %10, align 8
  %81 = getelementptr inbounds nuw %struct.wccp_address_table, ptr %80, i32 0, i32 4
  %82 = load ptr, ptr %81, align 8
  %83 = load i16, ptr %14, align 2
  %84 = zext i16 %83 to i32
  %85 = sub i32 %84, 1
  %86 = sext i32 %85 to i64
  %87 = getelementptr i32, ptr %82, i64 %86
  %88 = load ptr, ptr %12, align 8
  call void @ip_addr_to_str_buf(ptr noundef %87, ptr noundef %88, i32 noundef 16)
  br label %92

89:                                               ; preds = %72
  %90 = call ptr @wmem_packet_scope()
  %91 = call noalias ptr @wmem_strdup(ptr noundef %90, ptr noundef @.str.433)
  store ptr %91, ptr %12, align 8
  br label %92

92:                                               ; preds = %89, %77
  br label %141

93:                                               ; preds = %43
  %94 = load i16, ptr %14, align 2
  %95 = zext i16 %94 to i32
  %96 = icmp eq i32 %95, 0
  br i1 %96, label %97, label %100

97:                                               ; preds = %93
  %98 = call ptr @wmem_packet_scope()
  %99 = call noalias ptr @wmem_strdup(ptr noundef %98, ptr noundef @.str.434)
  store ptr %99, ptr %12, align 8
  br label %141

100:                                              ; preds = %93
  %101 = load i16, ptr %14, align 2
  %102 = zext i16 %101 to i32
  %103 = load ptr, ptr %10, align 8
  %104 = getelementptr inbounds nuw %struct.wccp_address_table, ptr %103, i32 0, i32 3
  %105 = load i16, ptr %104, align 2
  %106 = zext i16 %105 to i32
  %107 = icmp sgt i32 %102, %106
  br i1 %107, label %108, label %117

108:                                              ; preds = %100
  %109 = call ptr @wmem_packet_scope()
  %110 = load i16, ptr %14, align 2
  %111 = zext i16 %110 to i32
  %112 = load ptr, ptr %10, align 8
  %113 = getelementptr inbounds nuw %struct.wccp_address_table, ptr %112, i32 0, i32 3
  %114 = load i16, ptr %113, align 2
  %115 = zext i16 %114 to i32
  %116 = call noalias ptr (ptr, ptr, ...) @wmem_strdup_printf(ptr noundef %109, ptr noundef @.str.424, i32 noundef %111, i32 noundef %115)
  store ptr %116, ptr %12, align 8
  br label %141

117:                                              ; preds = %100
  %118 = load ptr, ptr %10, align 8
  %119 = getelementptr inbounds nuw %struct.wccp_address_table, ptr %118, i32 0, i32 5
  %120 = load ptr, ptr %119, align 8
  %121 = icmp ne ptr %120, null
  br i1 %121, label %122, label %134

122:                                              ; preds = %117
  %123 = call ptr @wmem_packet_scope()
  %124 = call noalias ptr @wmem_alloc(ptr noundef %123, i64 noundef 46) #11
  store ptr %124, ptr %12, align 8
  %125 = load ptr, ptr %10, align 8
  %126 = getelementptr inbounds nuw %struct.wccp_address_table, ptr %125, i32 0, i32 5
  %127 = load ptr, ptr %126, align 8
  %128 = load i16, ptr %14, align 2
  %129 = zext i16 %128 to i32
  %130 = sub i32 %129, 1
  %131 = sext i32 %130 to i64
  %132 = getelementptr %struct.e_in6_addr, ptr %127, i64 %131
  %133 = load ptr, ptr %12, align 8
  call void @ip6_to_str_buf(ptr noundef %132, ptr noundef %133, i64 noundef 46)
  br label %137

134:                                              ; preds = %117
  %135 = call ptr @wmem_packet_scope()
  %136 = call noalias ptr @wmem_strdup(ptr noundef %135, ptr noundef @.str.425)
  store ptr %136, ptr %12, align 8
  br label %137

137:                                              ; preds = %134, %122
  br label %141

138:                                              ; preds = %43
  %139 = call ptr @wmem_packet_scope()
  %140 = call noalias ptr @wmem_strdup(ptr noundef %139, ptr noundef @.str.426)
  store ptr %140, ptr %12, align 8
  br label %141

141:                                              ; preds = %138, %137, %108, %97, %92, %63, %52
  br label %142

142:                                              ; preds = %141, %40
  call void @llvm.lifetime.end.p0(i64 2, ptr %14) #9
  call void @llvm.lifetime.end.p0(i64 2, ptr %13) #9
  br label %143

143:                                              ; preds = %142, %19
  %144 = load ptr, ptr %12, align 8
  call void @llvm.lifetime.end.p0(i64 8, ptr %12) #9
  call void @llvm.lifetime.end.p0(i64 4, ptr %11) #9
  ret ptr %144
}