; Function Attrs: null_pointer_is_valid sspstrong uwtable
define internal fastcc ptr @decode_wccp_encoded_address(ptr noundef %0, i32 noundef %1, ptr noundef readonly captures(none) %2) unnamed_addr #0 {
  %4 = alloca i32, align 4
  call void @llvm.lifetime.start.p0(i64 4, ptr nonnull %4) #8
  %5 = load i8, ptr %2, align 8, !range !25, !noundef !26
  %6 = trunc nuw i8 %5 to i1
  br i1 %6, label %11, label %7

7:                                                ; preds = %3
  %8 = tail call i32 @tvb_get_ipv4(ptr noundef %0, i32 noundef %1)
  store i32 %8, ptr %4, align 4
  %9 = tail call ptr @wmem_packet_scope()
  %10 = tail call noalias dereferenceable_or_null(16) ptr @wmem_alloc(ptr noundef %9, i64 noundef 16) #10
  call void @ip_addr_to_str_buf(ptr noundef nonnull %4, ptr noundef %10, i32 noundef 16)
  br label %76

11:                                               ; preds = %3
  %12 = tail call i32 @tvb_get_ntohl(ptr noundef %0, i32 noundef %1)
  %.not = icmp ult i32 %12, 65536
  br i1 %.not, label %16, label %13

13:                                               ; preds = %11
  %14 = tail call ptr @wmem_packet_scope()
  %15 = tail call noalias ptr @wmem_strdup(ptr noundef %14, ptr noundef nonnull @.str.421)
  br label %76

16:                                               ; preds = %11
  %17 = getelementptr inbounds nuw i8, ptr %2, i64 2
  %18 = load i16, ptr %17, align 2
  switch i16 %18, label %73 [
    i16 1, label %19
    i16 2, label %46
  ]

19:                                               ; preds = %16
  %20 = icmp eq i32 %12, 0
  br i1 %20, label %21, label %24

21:                                               ; preds = %19
  %22 = tail call ptr @wmem_packet_scope()
  %23 = tail call noalias ptr @wmem_strdup(ptr noundef %22, ptr noundef nonnull @.str.432)
  br label %76

24:                                               ; preds = %19
  %25 = getelementptr inbounds nuw i8, ptr %2, i64 6
  %26 = load i16, ptr %25, align 2
  %27 = zext i16 %26 to i32
  %28 = icmp samesign ugt i32 %12, %27
  br i1 %28, label %29, label %34

29:                                               ; preds = %24
  %30 = tail call ptr @wmem_packet_scope()
  %31 = load i16, ptr %25, align 2
  %32 = zext i16 %31 to i32
  %33 = tail call noalias ptr (ptr, ptr, ...) @wmem_strdup_printf(ptr noundef %30, ptr noundef nonnull @.str.422, i32 noundef %12, i32 noundef %32)
  br label %76

34:                                               ; preds = %24
  %35 = getelementptr inbounds nuw i8, ptr %2, i64 8
  %36 = load ptr, ptr %35, align 8
  %.not29 = icmp eq ptr %36, null
  %37 = tail call ptr @wmem_packet_scope()
  br i1 %.not29, label %44, label %38

38:                                               ; preds = %34
  %39 = tail call noalias dereferenceable_or_null(16) ptr @wmem_alloc(ptr noundef %37, i64 noundef 16) #10
  %40 = load ptr, ptr %35, align 8
  %41 = zext nneg i32 %12 to i64
  %42 = getelementptr i32, ptr %40, i64 %41
  %43 = getelementptr i8, ptr %42, i64 -4
  tail call void @ip_addr_to_str_buf(ptr noundef %43, ptr noundef %39, i32 noundef 16)
  br label %76

44:                                               ; preds = %34
  %45 = tail call noalias ptr @wmem_strdup(ptr noundef %37, ptr noundef nonnull @.str.433)
  br label %76

46:                                               ; preds = %16
  %47 = icmp eq i32 %12, 0
  br i1 %47, label %48, label %51

48:                                               ; preds = %46
  %49 = tail call ptr @wmem_packet_scope()
  %50 = tail call noalias ptr @wmem_strdup(ptr noundef %49, ptr noundef nonnull @.str.434)
  br label %76

51:                                               ; preds = %46
  %52 = getelementptr inbounds nuw i8, ptr %2, i64 6
  %53 = load i16, ptr %52, align 2
  %54 = zext i16 %53 to i32
  %55 = icmp samesign ugt i32 %12, %54
  br i1 %55, label %56, label %61

56:                                               ; preds = %51
  %57 = tail call ptr @wmem_packet_scope()
  %58 = load i16, ptr %52, align 2
  %59 = zext i16 %58 to i32
  %60 = tail call noalias ptr (ptr, ptr, ...) @wmem_strdup_printf(ptr noundef %57, ptr noundef nonnull @.str.424, i32 noundef %12, i32 noundef %59)
  br label %76

61:                                               ; preds = %51
  %62 = getelementptr inbounds nuw i8, ptr %2, i64 16
  %63 = load ptr, ptr %62, align 8
  %.not28 = icmp eq ptr %63, null
  %64 = tail call ptr @wmem_packet_scope()
  br i1 %.not28, label %71, label %65

65:                                               ; preds = %61
  %66 = tail call noalias dereferenceable_or_null(46) ptr @wmem_alloc(ptr noundef %64, i64 noundef 46) #10
  %67 = load ptr, ptr %62, align 8
  %68 = zext nneg i32 %12 to i64
  %69 = getelementptr %struct.e_in6_addr, ptr %67, i64 %68
  %70 = getelementptr i8, ptr %69, i64 -16
  tail call void @ip6_to_str_buf(ptr noundef %70, ptr noundef %66, i64 noundef 46)
  br label %76

71:                                               ; preds = %61
  %72 = tail call noalias ptr @wmem_strdup(ptr noundef %64, ptr noundef nonnull @.str.425)
  br label %76

73:                                               ; preds = %16
  %74 = tail call ptr @wmem_packet_scope()
  %75 = tail call noalias ptr @wmem_strdup(ptr noundef %74, ptr noundef nonnull @.str.426)
  br label %76

76:                                               ; preds = %13, %65, %71, %38, %44, %73, %56, %48, %29, %21, %7
  %.0 = phi ptr [ %10, %7 ], [ %15, %13 ], [ %75, %73 ], [ %50, %48 ], [ %60, %56 ], [ %66, %65 ], [ %72, %71 ], [ %23, %21 ], [ %33, %29 ], [ %39, %38 ], [ %45, %44 ]
  call void @llvm.lifetime.end.p0(i64 4, ptr nonnull %4) #8
  ret ptr %.0
}